target datalayout = "e-m:e-p270:32:32-p271:32:32-p272:64:64-i64:64-i128:128-f80:128-n8:16:32:64-S128"
target triple = "x86_64-pc-linux-gnu"

%struct.GCtab = type { %struct.GCRef, i8, i8, i8, i8, %struct.MRef, %struct.GCRef, %struct.GCRef, %struct.MRef, i32, i32, %struct.MRef }
%struct.GCRef = type { i64 }
%struct.MRef = type { i64 }
%struct.Node = type { %union.TValue, %union.TValue, %struct.MRef }
%union.TValue = type { i64 }
%struct.anon.0 = type { i32, i32 }

; Function Attrs: alwaysinline nounwind uwtable
define internal ptr @hashmask(ptr noundef %0, i32 noundef %1) #2 {
  %3 = alloca ptr, align 8
  %4 = alloca i32, align 4
  %5 = alloca ptr, align 8
  store ptr %0, ptr %3, align 8, !tbaa !11
  store i32 %1, ptr %4, align 4, !tbaa !9
  call void @llvm.lifetime.start.p0(i64 8, ptr %5) #9
  %6 = load ptr, ptr %3, align 8, !tbaa !11
  %7 = getelementptr inbounds nuw %struct.GCtab, ptr %6, i32 0, i32 8
  %8 = getelementptr inbounds nuw %struct.MRef, ptr %7, i32 0, i32 0
  %9 = load i64, ptr %8, align 8, !tbaa !29
  %10 = inttoptr i64 %9 to ptr
  store ptr %10, ptr %5, align 8, !tbaa !27
  %11 = load ptr, ptr %5, align 8, !tbaa !27
  %12 = load i32, ptr %4, align 4, !tbaa !9
  %13 = load ptr, ptr %3, align 8, !tbaa !11
  %14 = getelementptr inbounds nuw %struct.GCtab, ptr %13, i32 0, i32 10
  %15 = load i32, ptr %14, align 4, !tbaa !13
  %16 = and i32 %12, %15
  %17 = zext i32 %16 to i64
  %18 = getelementptr inbounds nuw %struct.Node, ptr %11, i64 %17
  call void @llvm.lifetime.end.p0(i64 8, ptr %5) #9
  ret ptr %18
}

; Function Attrs: alwaysinline nounwind uwtable
define internal i32 @hashrot(i32 noundef %0, i32 noundef %1) #2 {
  %3 = alloca i32, align 4
  %4 = alloca i32, align 4
  store i32 %0, ptr %3, align 4, !tbaa !9
  store i32 %1, ptr %4, align 4, !tbaa !9
  %5 = load i32, ptr %4, align 4, !tbaa !9
  %6 = load i32, ptr %3, align 4, !tbaa !9
  %7 = xor i32 %6, %5
  store i32 %7, ptr %3, align 4, !tbaa !9
  %8 = load i32, ptr %4, align 4, !tbaa !9
  %9 = shl i32 %8, 14
  %10 = load i32, ptr %4, align 4, !tbaa !9
  %11 = lshr i32 %10, 18
  %12 = or i32 %9, %11
  store i32 %12, ptr %4, align 4, !tbaa !9
  %13 = load i32, ptr %4, align 4, !tbaa !9
  %14 = load i32, ptr %3, align 4, !tbaa !9
  %15 = sub i32 %14, %13
  store i32 %15, ptr %3, align 4, !tbaa !9
  %16 = load i32, ptr %4, align 4, !tbaa !9
  %17 = shl i32 %16, 5
  %18 = load i32, ptr %4, align 4, !tbaa !9
  %19 = lshr i32 %18, 27
  %20 = or i32 %17, %19
  store i32 %20, ptr %4, align 4, !tbaa !9
  %21 = load i32, ptr %3, align 4, !tbaa !9
  %22 = load i32, ptr %4, align 4, !tbaa !9
  %23 = xor i32 %22, %21
  store i32 %23, ptr %4, align 4, !tbaa !9
  %24 = load i32, ptr %3, align 4, !tbaa !9
  %25 = shl i32 %24, 13
  %26 = load i32, ptr %3, align 4, !tbaa !9
  %27 = lshr i32 %26, 19
  %28 = or i32 %25, %27
  %29 = load i32, ptr %4, align 4, !tbaa !9
  %30 = sub i32 %29, %28
  store i32 %30, ptr %4, align 4, !tbaa !9
  %31 = load i32, ptr %4, align 4, !tbaa !9
  ret i32 %31
}

; Function Attrs: nounwind uwtable
define hidden ptr @lj_tab_getinth(ptr noundef %0, i32 noundef %1) #0 {
  %3 = alloca ptr, align 8
  %4 = alloca ptr, align 8
  %5 = alloca i32, align 4
  %6 = alloca %union.TValue, align 8
  %7 = alloca ptr, align 8
  %8 = alloca i32, align 4
  store ptr %0, ptr %4, align 8, !tbaa !11
  store i32 %1, ptr %5, align 4, !tbaa !9
  call void @llvm.lifetime.start.p0(i64 8, ptr %6) #9
  call void @llvm.lifetime.start.p0(i64 8, ptr %7) #9
  %9 = load i32, ptr %5, align 4, !tbaa !9
  %10 = sitofp i32 %9 to double
  store double %10, ptr %6, align 8, !tbaa !32
  %11 = load ptr, ptr %4, align 8, !tbaa !11
  %12 = getelementptr inbounds nuw %struct.anon.0, ptr %6, i32 0, i32 0
  %13 = load i32, ptr %12, align 8, !tbaa !32
  %14 = getelementptr inbounds nuw %struct.anon.0, ptr %6, i32 0, i32 1
  %15 = load i32, ptr %14, align 4, !tbaa !32
  %16 = shl i32 %15, 1
  %17 = call i32 @hashrot(i32 noundef %13, i32 noundef %16)
  %18 = call ptr @hashmask(ptr noundef %11, i32 noundef %17)
  store ptr %18, ptr %7, align 8, !tbaa !27
  br label %19

19:                                               ; preds = %36, %2
  %20 = load ptr, ptr %7, align 8, !tbaa !27
  %21 = getelementptr inbounds nuw %struct.Node, ptr %20, i32 0, i32 1
  %22 = load i64, ptr %21, align 8, !tbaa !32
  %23 = ashr i64 %22, 47
  %24 = trunc i64 %23 to i32
  %25 = icmp ult i32 %24, -14
  br i1 %25, label %26, label %35

26:                                               ; preds = %19
  %27 = load ptr, ptr %7, align 8, !tbaa !27
  %28 = getelementptr inbounds nuw %struct.Node, ptr %27, i32 0, i32 1
  %29 = load double, ptr %28, align 8, !tbaa !32
  %30 = load double, ptr %6, align 8, !tbaa !32
  %31 = fcmp oeq double %29, %30
  br i1 %31, label %32, label %35

32:                                               ; preds = %26
  %33 = load ptr, ptr %7, align 8, !tbaa !27
  %34 = getelementptr inbounds nuw %struct.Node, ptr %33, i32 0, i32 0
  store ptr %34, ptr %3, align 8
  store i32 1, ptr %8, align 4
  br label %44

35:                                               ; preds = %26, %19
  br label %36

36:                                               ; preds = %35
  %37 = load ptr, ptr %7, align 8, !tbaa !27
  %38 = getelementptr inbounds nuw %struct.Node, ptr %37, i32 0, i32 2
  %39 = getelementptr inbounds nuw %struct.MRef, ptr %38, i32 0, i32 0
  %40 = load i64, ptr %39, align 8, !tbaa !35
  %41 = inttoptr i64 %40 to ptr
  store ptr %41, ptr %7, align 8, !tbaa !27
  %42 = icmp ne ptr %41, null
  br i1 %42, label %19, label %43, !llvm.loop !65

43:                                               ; preds = %36
  store ptr null, ptr %3, align 8
  store i32 1, ptr %8, align 4
  br label %44

44:                                               ; preds = %43, %32
  call void @llvm.lifetime.end.p0(i64 8, ptr %7) #9
  call void @llvm.lifetime.end.p0(i64 8, ptr %6) #9
  %45 = load ptr, ptr %3, align 8
  ret ptr %45
}