; Function Attrs: nofree norecurse nosync nounwind memory(read, inaccessiblemem: none) uwtable
define hidden ptr @lj_tab_getinth(ptr noundef readonly captures(none) %0, i32 noundef %1) local_unnamed_addr #7 {
  %3 = sitofp i32 %1 to double
  %4 = bitcast double %3 to i64
  %.sroa.0.0.extract.trunc = trunc i64 %4 to i32
  %sh.diff = lshr i64 %4, 31
  %tr.sh.diff = trunc i64 %sh.diff to i32
  %5 = and i32 %tr.sh.diff, -2
  %6 = xor i32 %5, %.sroa.0.0.extract.trunc
  %7 = tail call i32 @llvm.fshl.i32(i32 %5, i32 %5, i32 14)
  %8 = sub i32 %6, %7
  %9 = tail call i32 @llvm.fshl.i32(i32 %7, i32 %7, i32 5)
  %10 = xor i32 %9, %8
  %11 = tail call i32 @llvm.fshl.i32(i32 %8, i32 %8, i32 13)
  %12 = sub i32 %10, %11
  %13 = getelementptr inbounds nuw i8, ptr %0, i64 40
  %14 = load i64, ptr %13, align 8, !tbaa !15
  %15 = inttoptr i64 %14 to ptr
  %16 = getelementptr inbounds nuw i8, ptr %0, i64 52
  %17 = load i32, ptr %16, align 4, !tbaa !14
  %18 = and i32 %17, %12
  %19 = zext i32 %18 to i64
  %20 = getelementptr inbounds nuw %struct.Node, ptr %15, i64 %19
  br label %21

21:                                               ; preds = %27, %2
  %.0 = phi ptr [ %20, %2 ], [ %30, %27 ]
  %22 = getelementptr inbounds nuw i8, ptr %.0, i64 8
  %23 = load i64, ptr %22, align 8
  %24 = icmp ult i64 %23, -1970324836974592
  %25 = bitcast i64 %23 to double
  %26 = fcmp oeq double %25, %3
  %or.cond = and i1 %24, %26
  br i1 %or.cond, label %31, label %27

27:                                               ; preds = %21
  %28 = getelementptr inbounds nuw i8, ptr %.0, i64 16
  %29 = load i64, ptr %28, align 8, !tbaa !16
  %30 = inttoptr i64 %29 to ptr
  %.not = icmp eq i64 %29, 0
  br i1 %.not, label %31, label %21, !llvm.loop !50

31:                                               ; preds = %21, %27
  %.06 = phi ptr [ null, %27 ], [ %.0, %21 ]
  ret ptr %.06
}